target datalayout = "e-m:e-p270:32:32-p271:32:32-p272:64:64-i64:64-i128:128-f80:128-n8:16:32:64-S128"
target triple = "x86_64-pc-linux-gnu"

%struct.enum_val_t = type { ptr, ptr, i32 }

@.str = private unnamed_addr constant [7 x i8] c"MAC-NR\00", align 1
@proto_mac_nr = hidden global i32 0, align 4
@proto_register_mac_nr.ett = internal global [6 x ptr] [ptr @ett_mac_nr, ptr @ett_mac_nr_context, ptr @ett_mac_nr_subheader, ptr @ett_mac_nr_rar_subheader, ptr @ett_mac_nr_rar_grant, ptr @ett_mac_nr_me_phr_entry], align 16
@proto_register_mac_nr.lcid_drb_source_vals = internal constant [3 x %struct.enum_val_t] [%struct.enum_val_t { ptr @.str.545, ptr @.str.546, i32 0 }, %struct.enum_val_t { ptr @.str.547, ptr @.str.548, i32 1 }, %struct.enum_val_t { ptr null, ptr null, i32 -1 }], align 16
@.str.561 = private unnamed_addr constant [7 x i8] c"mac-nr\00", align 1
@.str.562 = private unnamed_addr constant [9 x i8] c"mac-3gpp\00", align 1
@mac_nr_tap = internal global i32 -1, align 4
@.str.563 = private unnamed_addr constant [19 x i8] c"attempt_rrc_decode\00", align 1
@.str.564 = private unnamed_addr constant [66 x i8] c"Attempt to decode BCCH, PCCH and CCCH data using NR RRC dissector\00", align 1
@global_mac_nr_attempt_rrc_decode = internal global i32 1, align 4
@.str.565 = private unnamed_addr constant [28 x i8] c"attempt_to_dissect_srb_sdus\00", align 1
@.str.566 = private unnamed_addr constant [38 x i8] c"Attempt to dissect LCID 1-3 as srb1-3\00", align 1
@.str.567 = private unnamed_addr constant [66 x i8] c"Will call NR RLC dissector with standard settings as per RRC spec\00", align 1
@global_mac_nr_attempt_srb_decode = internal global i32 1, align 4
@.str.568 = private unnamed_addr constant [27 x i8] c"lcid_to_drb_mapping_source\00", align 1
@.str.569 = private unnamed_addr constant [39 x i8] c"Source of LCID -> drb channel settings\00", align 1
@.str.570 = private unnamed_addr constant [119 x i8] c"Set whether LCID -> drb Table is taken from static table (below) or from info learned from control protocol (i.e. RRC)\00", align 1
@global_mac_nr_lcid_drb_source = internal global i32 0, align 4
@.str.571 = private unnamed_addr constant [25 x i8] c"Static LCID -> drb Table\00", align 1
@.str.572 = private unnamed_addr constant [17 x i8] c"drb_bearerconfig\00", align 1
@lcid_drb_mappings = internal global ptr null, align 8
@num_lcid_drb_mappings = internal global i32 0, align 4
@.str.573 = private unnamed_addr constant [1 x i8] zeroinitializer, align 1
@lcid_drb_mappings_uat = internal global ptr null, align 8
@.str.574 = private unnamed_addr constant [10 x i8] c"drb_table\00", align 1
@.str.575 = private unnamed_addr constant [27 x i8] c"LCID -> DRB Mappings Table\00", align 1
@.str.576 = private unnamed_addr constant [64 x i8] c"A table that maps from configurable lcids -> RLC bearer configs\00", align 1

; Function Attrs: nounwind uwtable
define hidden void @proto_register_mac_nr() #0 {
  %1 = alloca ptr, align 8
  %2 = alloca ptr, align 8
  %3 = call i32 @proto_register_protocol(ptr noundef @.str, ptr noundef @.str, ptr noundef @.str.561)
  store i32 %3, ptr @proto_mac_nr, align 4
  %4 = load i32, ptr @proto_mac_nr, align 4
  call void @proto_register_field_array(i32 noundef %4, ptr noundef @proto_register_mac_nr.hf, i32 noundef 277)
  call void @proto_register_subtree_array(ptr noundef @proto_register_mac_nr.ett, i32 noundef 6)
  %5 = load i32, ptr @proto_mac_nr, align 4
  %6 = call ptr @expert_register_protocol(i32 noundef %5)
  store ptr %6, ptr %2, align 8
  %7 = load ptr, ptr %2, align 8
  call void @expert_register_field_array(ptr noundef %7, ptr noundef @proto_register_mac_nr.ei, i32 noundef 5)
  %8 = load i32, ptr @proto_mac_nr, align 4
  %9 = call ptr @register_dissector(ptr noundef @.str.561, ptr noundef @dissect_mac_nr, i32 noundef %8)
  %10 = call i32 @register_tap(ptr noundef @.str.562)
  store i32 %10, ptr @mac_nr_tap, align 4
  %11 = load i32, ptr @proto_mac_nr, align 4
  %12 = call ptr @prefs_register_protocol(i32 noundef %11, ptr noundef null)
  store ptr %12, ptr %1, align 8
  %13 = load ptr, ptr %1, align 8
  call void @prefs_register_bool_preference(ptr noundef %13, ptr noundef @.str.563, ptr noundef @.str.564, ptr noundef @.str.564, ptr noundef @global_mac_nr_attempt_rrc_decode)
  %14 = load ptr, ptr %1, align 8
  call void @prefs_register_bool_preference(ptr noundef %14, ptr noundef @.str.565, ptr noundef @.str.566, ptr noundef @.str.567, ptr noundef @global_mac_nr_attempt_srb_decode)
  %15 = load ptr, ptr %1, align 8
  call void @prefs_register_enum_preference(ptr noundef %15, ptr noundef @.str.568, ptr noundef @.str.569, ptr noundef @.str.570, ptr noundef @global_mac_nr_lcid_drb_source, ptr noundef @proto_register_mac_nr.lcid_drb_source_vals, i32 noundef 0)
  %16 = call ptr @uat_new(ptr noundef @.str.571, i64 noundef 16, ptr noundef @.str.572, i1 noundef zeroext true, ptr noundef @lcid_drb_mappings, ptr noundef @num_lcid_drb_mappings, i32 noundef 1, ptr noundef @.str.573, ptr noundef @lcid_drb_mapping_copy_cb, ptr noundef null, ptr noundef null, ptr noundef null, ptr noundef null, ptr noundef @proto_register_mac_nr.lcid_drb_mapping_flds)
  store ptr %16, ptr @lcid_drb_mappings_uat, align 8
  %17 = load ptr, ptr %1, align 8
  %18 = load ptr, ptr @lcid_drb_mappings_uat, align 8
  call void @prefs_register_uat_preference(ptr noundef %17, ptr noundef @.str.574, ptr noundef @.str.575, ptr noundef @.str.576, ptr noundef %18)
  call void @register_init_routine(ptr noundef @mac_nr_init_protocol)
  call void @register_cleanup_routine(ptr noundef @mac_nr_cleanup_protocol)
  ret void
}