; Function Attrs: nounwind uwtable
define hidden void @proto_register_mac_nr() local_unnamed_addr #0 {
  %1 = tail call i32 @proto_register_protocol(ptr noundef nonnull @.str, ptr noundef nonnull @.str, ptr noundef nonnull @.str.561) #12
  store i32 %1, ptr @proto_mac_nr, align 4
  tail call void @proto_register_field_array(i32 noundef %1, ptr noundef nonnull @proto_register_mac_nr.hf, i32 noundef 277) #12
  tail call void @proto_register_subtree_array(ptr noundef nonnull @proto_register_mac_nr.ett, i32 noundef 6) #12
  %2 = load i32, ptr @proto_mac_nr, align 4
  %3 = tail call ptr @expert_register_protocol(i32 noundef %2) #12
  tail call void @expert_register_field_array(ptr noundef %3, ptr noundef nonnull @proto_register_mac_nr.ei, i32 noundef 5) #12
  %4 = load i32, ptr @proto_mac_nr, align 4
  %5 = tail call ptr @register_dissector(ptr noundef nonnull @.str.561, ptr noundef nonnull @dissect_mac_nr, i32 noundef %4) #12
  %6 = tail call i32 @register_tap(ptr noundef nonnull @.str.562) #12
  store i32 %6, ptr @mac_nr_tap, align 4
  %7 = load i32, ptr @proto_mac_nr, align 4
  %8 = tail call ptr @prefs_register_protocol(i32 noundef %7, ptr noundef null) #12
  tail call void @prefs_register_bool_preference(ptr noundef %8, ptr noundef nonnull @.str.563, ptr noundef nonnull @.str.564, ptr noundef nonnull @.str.564, ptr noundef nonnull @global_mac_nr_attempt_rrc_decode) #12
  tail call void @prefs_register_bool_preference(ptr noundef %8, ptr noundef nonnull @.str.565, ptr noundef nonnull @.str.566, ptr noundef nonnull @.str.567, ptr noundef nonnull @global_mac_nr_attempt_srb_decode) #12
  tail call void @prefs_register_enum_preference(ptr noundef %8, ptr noundef nonnull @.str.568, ptr noundef nonnull @.str.569, ptr noundef nonnull @.str.570, ptr noundef nonnull @global_mac_nr_lcid_drb_source, ptr noundef nonnull @proto_register_mac_nr.lcid_drb_source_vals, i32 noundef 0) #12
  %9 = tail call ptr @uat_new(ptr noundef nonnull @.str.571, i64 noundef 16, ptr noundef nonnull @.str.572, i1 noundef zeroext true, ptr noundef nonnull @lcid_drb_mappings, ptr noundef nonnull @num_lcid_drb_mappings, i32 noundef 1, ptr noundef nonnull @.str.573, ptr noundef nonnull @lcid_drb_mapping_copy_cb, ptr noundef null, ptr noundef null, ptr noundef null, ptr noundef null, ptr noundef nonnull @proto_register_mac_nr.lcid_drb_mapping_flds) #12
  store ptr %9, ptr @lcid_drb_mappings_uat, align 8
  tail call void @prefs_register_uat_preference(ptr noundef %8, ptr noundef nonnull @.str.574, ptr noundef nonnull @.str.575, ptr noundef nonnull @.str.576, ptr noundef %9) #12
  tail call void @register_init_routine(ptr noundef nonnull @mac_nr_init_protocol) #12
  tail call void @register_cleanup_routine(ptr noundef nonnull @mac_nr_cleanup_protocol) #12
  ret void
}